target datalayout = "e-m:e-p270:32:32-p271:32:32-p272:64:64-i64:64-i128:128-f80:128-n8:16:32:64-S128"
target triple = "x86_64-pc-linux-gnu"

%struct.mi_page_s = type { i32, i32, i8, i16, i16, %union.mi_page_flags_s, i8, ptr, ptr, i16, i8, i8, i64, ptr, i64, i64, ptr, ptr, [1 x ptr] }
%union.mi_page_flags_s = type { i8 }
%struct.mi_segment_s = type { %struct.mi_memid_s, i8, i8, i64, ptr, i64, %struct.mi_commit_mask_s, %struct.mi_commit_mask_s, ptr, i8, i8, i64, i64, i64, i64, ptr, ptr, i64, i64, i32, i64, i64, [513 x %struct.mi_page_s] }
%struct.mi_memid_s = type { %union.anon, i8, i8, i8, i32 }
%union.anon = type { %struct.mi_memid_os_info }
%struct.mi_memid_os_info = type { ptr, i64 }
%struct.mi_commit_mask_s = type { [8 x i64] }

; Function Attrs: inlinehint nounwind uwtable
define internal ptr @mi_slice_to_page(ptr noundef %0) #2 {
  %2 = alloca ptr, align 8
  store ptr %0, ptr %2, align 8, !tbaa !12
  %3 = load ptr, ptr %2, align 8, !tbaa !12
  ret ptr %3
}

; Function Attrs: inlinehint nounwind uwtable
define internal ptr @mi_slice_first(ptr noundef %0) #2 {
  %2 = alloca ptr, align 8
  %3 = alloca ptr, align 8
  store ptr %0, ptr %2, align 8, !tbaa !12
  call void @llvm.lifetime.start.p0(i64 8, ptr %3) #11
  %4 = load ptr, ptr %2, align 8, !tbaa !12
  %5 = load ptr, ptr %2, align 8, !tbaa !12
  %6 = getelementptr inbounds nuw %struct.mi_page_s, ptr %5, i32 0, i32 1
  %7 = load i32, ptr %6, align 4, !tbaa !27
  %8 = zext i32 %7 to i64
  %9 = sub i64 0, %8
  %10 = getelementptr inbounds i8, ptr %4, i64 %9
  store ptr %10, ptr %3, align 8, !tbaa !12
  %11 = load ptr, ptr %3, align 8, !tbaa !12
  call void @llvm.lifetime.end.p0(i64 8, ptr %3) #11
  ret ptr %11
}

; Function Attrs: inlinehint nounwind uwtable
define internal void @_mi_memzero(ptr noundef %0, i64 noundef %1) #2 {
  %3 = alloca ptr, align 8
  %4 = alloca i64, align 8
  store ptr %0, ptr %3, align 8, !tbaa !22
  store i64 %1, ptr %4, align 8, !tbaa !8
  %5 = load ptr, ptr %3, align 8, !tbaa !22
  %6 = load i64, ptr %4, align 8, !tbaa !8
  call void @llvm.memset.p0.i64(ptr align 1 %5, i8 0, i64 %6, i1 false)
  ret void
}

; Function Attrs: inlinehint nounwind uwtable
define internal ptr @_mi_segment_page_of(ptr noundef %0, ptr noundef %1) #2 {
  %3 = alloca ptr, align 8
  %4 = alloca ptr, align 8
  %5 = alloca i64, align 8
  %6 = alloca i64, align 8
  %7 = alloca ptr, align 8
  %8 = alloca ptr, align 8
  store ptr %0, ptr %3, align 8, !tbaa !25
  store ptr %1, ptr %4, align 8, !tbaa !22
  call void @llvm.lifetime.start.p0(i64 8, ptr %5) #11
  %9 = load ptr, ptr %4, align 8, !tbaa !22
  %10 = load ptr, ptr %3, align 8, !tbaa !25
  %11 = ptrtoint ptr %9 to i64
  %12 = ptrtoint ptr %10 to i64
  %13 = sub i64 %11, %12
  store i64 %13, ptr %5, align 8, !tbaa !8
  call void @llvm.lifetime.start.p0(i64 8, ptr %6) #11
  %14 = load i64, ptr %5, align 8, !tbaa !8
  %15 = lshr i64 %14, 16
  store i64 %15, ptr %6, align 8, !tbaa !8
  call void @llvm.lifetime.start.p0(i64 8, ptr %7) #11
  %16 = load ptr, ptr %3, align 8, !tbaa !25
  %17 = getelementptr inbounds nuw %struct.mi_segment_s, ptr %16, i32 0, i32 22
  %18 = load i64, ptr %6, align 8, !tbaa !8
  %19 = getelementptr inbounds nuw [513 x %struct.mi_page_s], ptr %17, i64 0, i64 %18
  store ptr %19, ptr %7, align 8, !tbaa !12
  call void @llvm.lifetime.start.p0(i64 8, ptr %8) #11
  %20 = load ptr, ptr %7, align 8, !tbaa !12
  %21 = call ptr @mi_slice_first(ptr noundef %20) #10
  store ptr %21, ptr %8, align 8, !tbaa !12
  %22 = load ptr, ptr %8, align 8, !tbaa !12
  %23 = call ptr @mi_slice_to_page(ptr noundef %22) #10
  call void @llvm.lifetime.end.p0(i64 8, ptr %8) #11
  call void @llvm.lifetime.end.p0(i64 8, ptr %7) #11
  call void @llvm.lifetime.end.p0(i64 8, ptr %6) #11
  call void @llvm.lifetime.end.p0(i64 8, ptr %5) #11
  ret ptr %23
}

; Function Attrs: inlinehint nounwind uwtable
define internal ptr @_mi_ptr_segment(ptr noundef %0) #2 {
  %2 = alloca ptr, align 8
  %3 = alloca ptr, align 8
  store ptr %0, ptr %2, align 8, !tbaa !22
  call void @llvm.lifetime.start.p0(i64 8, ptr %3) #11
  %4 = load ptr, ptr %2, align 8, !tbaa !22
  %5 = ptrtoint ptr %4 to i64
  %6 = sub i64 %5, 1
  %7 = and i64 %6, -33554432
  %8 = inttoptr i64 %7 to ptr
  store ptr %8, ptr %3, align 8, !tbaa !25
  %9 = load ptr, ptr %3, align 8, !tbaa !25
  %10 = ptrtoint ptr %9 to i64
  %11 = icmp sle i64 %10, 0
  br i1 %11, label %12, label %13

12:                                               ; preds = %1
  br label %15

13:                                               ; preds = %1
  %14 = load ptr, ptr %3, align 8, !tbaa !25
  br label %15

15:                                               ; preds = %13, %12
  %16 = phi ptr [ null, %12 ], [ %14, %13 ]
  call void @llvm.lifetime.end.p0(i64 8, ptr %3) #11
  ret ptr %16
}

; Function Attrs: inlinehint nounwind uwtable
define internal void @_mi_memzero_aligned(ptr noundef %0, i64 noundef %1) #2 {
  %3 = alloca ptr, align 8
  %4 = alloca i64, align 8
  %5 = alloca ptr, align 8
  store ptr %0, ptr %3, align 8, !tbaa !22
  store i64 %1, ptr %4, align 8, !tbaa !8
  call void @llvm.lifetime.start.p0(i64 8, ptr %5) #11
  %6 = load ptr, ptr %3, align 8, !tbaa !22
  call void @llvm.assume(i1 true) [ "align"(ptr %6, i64 8) ]
  store ptr %6, ptr %5, align 8, !tbaa !22
  %7 = load ptr, ptr %5, align 8, !tbaa !22
  %8 = load i64, ptr %4, align 8, !tbaa !8
  call void @_mi_memzero(ptr noundef %7, i64 noundef %8) #10
  call void @llvm.lifetime.end.p0(i64 8, ptr %5) #11
  ret void
}

; Function Attrs: inlinehint nounwind uwtable
define internal void @mi_page_set_has_aligned(ptr noundef %0, i1 noundef zeroext %1) #2 {
  %3 = alloca ptr, align 8
  %4 = alloca i8, align 1
  store ptr %0, ptr %3, align 8, !tbaa !12
  %5 = zext i1 %1 to i8
  store i8 %5, ptr %4, align 1, !tbaa !10
  %6 = load i8, ptr %4, align 1, !tbaa !10, !range !20, !noundef !21
  %7 = trunc i8 %6 to i1
  %8 = zext i1 %7 to i8
  %9 = load ptr, ptr %3, align 8, !tbaa !12
  %10 = getelementptr inbounds nuw %struct.mi_page_s, ptr %9, i32 0, i32 5
  %11 = load i8, ptr %10, align 2
  %12 = and i8 %8, 1
  %13 = shl i8 %12, 1
  %14 = and i8 %11, -3
  %15 = or i8 %14, %13
  store i8 %15, ptr %10, align 2
  ret void
}

; Function Attrs: inlinehint nounwind uwtable
define internal ptr @_mi_ptr_page(ptr noundef %0) #2 {
  %2 = alloca ptr, align 8
  store ptr %0, ptr %2, align 8, !tbaa !22
  %3 = load ptr, ptr %2, align 8, !tbaa !22
  %4 = call ptr @_mi_ptr_segment(ptr noundef %3) #10
  %5 = load ptr, ptr %2, align 8, !tbaa !22
  %6 = call ptr @_mi_segment_page_of(ptr noundef %4, ptr noundef %5) #10
  ret ptr %6
}

; Function Attrs: nounwind uwtable
define internal ptr @mi_heap_malloc_zero_no_guarded(ptr noundef %0, i64 noundef %1, i1 noundef zeroext %2) #0 {
  %4 = alloca ptr, align 8
  %5 = alloca i64, align 8
  %6 = alloca i8, align 1
  store ptr %0, ptr %4, align 8, !tbaa !3
  store i64 %1, ptr %5, align 8, !tbaa !8
  %7 = zext i1 %2 to i8
  store i8 %7, ptr %6, align 1, !tbaa !10
  %8 = load ptr, ptr %4, align 8, !tbaa !3
  %9 = load i64, ptr %5, align 8, !tbaa !8
  %10 = load i8, ptr %6, align 1, !tbaa !10, !range !20, !noundef !21
  %11 = trunc i8 %10 to i1
  %12 = call ptr @_mi_heap_malloc_zero(ptr noundef %8, i64 noundef %9, i1 noundef zeroext %11) #10
  ret ptr %12
}

; Function Attrs: noinline nounwind uwtable
define internal ptr @mi_heap_malloc_zero_aligned_at_overalloc(ptr noundef %0, i64 noundef %1, i64 noundef %2, i64 noundef %3, i1 noundef zeroext %4) #5 {
  %6 = alloca ptr, align 8
  %7 = alloca ptr, align 8
  %8 = alloca i64, align 8
  %9 = alloca i64, align 8
  %10 = alloca i64, align 8
  %11 = alloca i8, align 1
  %12 = alloca ptr, align 8
  %13 = alloca i64, align 8
  %14 = alloca i32, align 4
  %15 = alloca ptr, align 8
  %16 = alloca i64, align 8
  %17 = alloca i64, align 8
  %18 = alloca i64, align 8
  %19 = alloca ptr, align 8
  store ptr %0, ptr %7, align 8, !tbaa !3
  store i64 %1, ptr %8, align 8, !tbaa !8
  store i64 %2, ptr %9, align 8, !tbaa !8
  store i64 %3, ptr %10, align 8, !tbaa !8
  %20 = zext i1 %4 to i8
  store i8 %20, ptr %11, align 1, !tbaa !10
  call void @llvm.lifetime.start.p0(i64 8, ptr %12) #11
  call void @llvm.lifetime.start.p0(i64 8, ptr %13) #11
  %21 = load i64, ptr %9, align 8, !tbaa !8
  %22 = icmp ugt i64 %21, 16777216
  %23 = xor i1 %22, true
  %24 = xor i1 %23, true
  %25 = zext i1 %24 to i32
  %26 = sext i32 %25 to i64
  %27 = call i64 @llvm.expect.i64(i64 %26, i64 0)
  %28 = icmp ne i64 %27, 0
  br i1 %28, label %29, label %55

29:                                               ; preds = %5
  %30 = load i64, ptr %10, align 8, !tbaa !8
  %31 = icmp ne i64 %30, 0
  %32 = xor i1 %31, true
  %33 = xor i1 %32, true
  %34 = zext i1 %33 to i32
  %35 = sext i32 %34 to i64
  %36 = call i64 @llvm.expect.i64(i64 %35, i64 0)
  %37 = icmp ne i64 %36, 0
  br i1 %37, label %38, label %39

38:                                               ; preds = %29
  store ptr null, ptr %6, align 8
  store i32 1, ptr %14, align 4
  br label %128

39:                                               ; preds = %29
  %40 = load i64, ptr %8, align 8, !tbaa !8
  %41 = icmp ule i64 %40, 1024
  br i1 %41, label %42, label %43

42:                                               ; preds = %39
  br label %45

43:                                               ; preds = %39
  %44 = load i64, ptr %8, align 8, !tbaa !8
  br label %45

45:                                               ; preds = %43, %42
  %46 = phi i64 [ 1025, %42 ], [ %44, %43 ]
  store i64 %46, ptr %13, align 8, !tbaa !8
  %47 = load ptr, ptr %7, align 8, !tbaa !3
  %48 = load i64, ptr %13, align 8, !tbaa !8
  %49 = load i64, ptr %9, align 8, !tbaa !8
  %50 = call ptr @_mi_heap_malloc_zero_ex(ptr noundef %47, i64 noundef %48, i1 noundef zeroext false, i64 noundef %49) #10
  store ptr %50, ptr %12, align 8, !tbaa !22
  %51 = load ptr, ptr %12, align 8, !tbaa !22
  %52 = icmp eq ptr %51, null
  br i1 %52, label %53, label %54

53:                                               ; preds = %45
  store ptr null, ptr %6, align 8
  store i32 1, ptr %14, align 4
  br label %128

54:                                               ; preds = %45
  br label %75

55:                                               ; preds = %5
  %56 = load i64, ptr %8, align 8, !tbaa !8
  %57 = icmp ult i64 %56, 16
  br i1 %57, label %58, label %59

58:                                               ; preds = %55
  br label %61

59:                                               ; preds = %55
  %60 = load i64, ptr %8, align 8, !tbaa !8
  br label %61

61:                                               ; preds = %59, %58
  %62 = phi i64 [ 16, %58 ], [ %60, %59 ]
  %63 = load i64, ptr %9, align 8, !tbaa !8
  %64 = add i64 %62, %63
  %65 = sub i64 %64, 1
  store i64 %65, ptr %13, align 8, !tbaa !8
  %66 = load ptr, ptr %7, align 8, !tbaa !3
  %67 = load i64, ptr %13, align 8, !tbaa !8
  %68 = load i8, ptr %11, align 1, !tbaa !10, !range !20, !noundef !21
  %69 = trunc i8 %68 to i1
  %70 = call ptr @mi_heap_malloc_zero_no_guarded(ptr noundef %66, i64 noundef %67, i1 noundef zeroext %69) #10
  store ptr %70, ptr %12, align 8, !tbaa !22
  %71 = load ptr, ptr %12, align 8, !tbaa !22
  %72 = icmp eq ptr %71, null
  br i1 %72, label %73, label %74

73:                                               ; preds = %61
  store ptr null, ptr %6, align 8
  store i32 1, ptr %14, align 4
  br label %128

74:                                               ; preds = %61
  br label %75

75:                                               ; preds = %74, %54
  call void @llvm.lifetime.start.p0(i64 8, ptr %15) #11
  %76 = load ptr, ptr %12, align 8, !tbaa !22
  %77 = call ptr @_mi_ptr_page(ptr noundef %76) #10
  store ptr %77, ptr %15, align 8, !tbaa !12
  call void @llvm.lifetime.start.p0(i64 8, ptr %16) #11
  %78 = load i64, ptr %9, align 8, !tbaa !8
  %79 = sub i64 %78, 1
  store i64 %79, ptr %16, align 8, !tbaa !8
  call void @llvm.lifetime.start.p0(i64 8, ptr %17) #11
  %80 = load ptr, ptr %12, align 8, !tbaa !22
  %81 = ptrtoint ptr %80 to i64
  %82 = load i64, ptr %10, align 8, !tbaa !8
  %83 = add i64 %81, %82
  %84 = load i64, ptr %16, align 8, !tbaa !8
  %85 = and i64 %83, %84
  store i64 %85, ptr %17, align 8, !tbaa !8
  call void @llvm.lifetime.start.p0(i64 8, ptr %18) #11
  %86 = load i64, ptr %17, align 8, !tbaa !8
  %87 = icmp eq i64 %86, 0
  br i1 %87, label %88, label %89

88:                                               ; preds = %75
  br label %93

89:                                               ; preds = %75
  %90 = load i64, ptr %9, align 8, !tbaa !8
  %91 = load i64, ptr %17, align 8, !tbaa !8
  %92 = sub i64 %90, %91
  br label %93

93:                                               ; preds = %89, %88
  %94 = phi i64 [ 0, %88 ], [ %92, %89 ]
  store i64 %94, ptr %18, align 8, !tbaa !8
  call void @llvm.lifetime.start.p0(i64 8, ptr %19) #11
  %95 = load ptr, ptr %12, align 8, !tbaa !22
  %96 = ptrtoint ptr %95 to i64
  %97 = load i64, ptr %18, align 8, !tbaa !8
  %98 = add i64 %96, %97
  %99 = inttoptr i64 %98 to ptr
  store ptr %99, ptr %19, align 8, !tbaa !22
  %100 = load ptr, ptr %19, align 8, !tbaa !22
  %101 = load ptr, ptr %12, align 8, !tbaa !22
  %102 = icmp ne ptr %100, %101
  br i1 %102, label %103, label %110

103:                                              ; preds = %93
  %104 = load ptr, ptr %15, align 8, !tbaa !12
  call void @mi_page_set_has_aligned(ptr noundef %104, i1 noundef zeroext true) #10
  %105 = load ptr, ptr %15, align 8, !tbaa !12
  %106 = load ptr, ptr %12, align 8, !tbaa !22
  %107 = load i64, ptr %18, align 8, !tbaa !8
  %108 = load i64, ptr %8, align 8, !tbaa !8
  %109 = add i64 %107, %108
  call void @_mi_padding_shrink(ptr noundef %105, ptr noundef %106, i64 noundef %109) #10
  br label %110

110:                                              ; preds = %103, %93
  %111 = load i64, ptr %9, align 8, !tbaa !8
  %112 = icmp ugt i64 %111, 16777216
  br i1 %112, label %113, label %121

113:                                              ; preds = %110
  %114 = load i8, ptr %11, align 1, !tbaa !10, !range !20, !noundef !21
  %115 = trunc i8 %114 to i1
  br i1 %115, label %116, label %120

116:                                              ; preds = %113
  %117 = load ptr, ptr %19, align 8, !tbaa !22
  %118 = load ptr, ptr %19, align 8, !tbaa !22
  %119 = call i64 @mi_usable_size(ptr noundef %118) #10
  call void @_mi_memzero_aligned(ptr noundef %117, i64 noundef %119) #10
  br label %120

120:                                              ; preds = %116, %113
  br label %121

121:                                              ; preds = %120, %110
  %122 = load ptr, ptr %12, align 8, !tbaa !22
  %123 = load ptr, ptr %19, align 8, !tbaa !22
  %124 = icmp ne ptr %122, %123
  br i1 %124, label %125, label %126

125:                                              ; preds = %121
  br label %126

126:                                              ; preds = %125, %121
  %127 = load ptr, ptr %19, align 8, !tbaa !22
  store ptr %127, ptr %6, align 8
  store i32 1, ptr %14, align 4
  call void @llvm.lifetime.end.p0(i64 8, ptr %19) #11
  call void @llvm.lifetime.end.p0(i64 8, ptr %18) #11
  call void @llvm.lifetime.end.p0(i64 8, ptr %17) #11
  call void @llvm.lifetime.end.p0(i64 8, ptr %16) #11
  call void @llvm.lifetime.end.p0(i64 8, ptr %15) #11
  br label %128

128:                                              ; preds = %126, %73, %53, %38
  call void @llvm.lifetime.end.p0(i64 8, ptr %13) #11
  call void @llvm.lifetime.end.p0(i64 8, ptr %12) #11
  %129 = load ptr, ptr %6, align 8
  ret ptr %129
}