; Function Attrs: noinline nounwind uwtable
define internal fastcc ptr @mi_heap_malloc_zero_aligned_at_overalloc(ptr noundef %0, i64 noundef range(i64 0, 281474976579585) %1, i64 noundef %2, i64 noundef %3, i1 noundef zeroext %4) unnamed_addr #2 {
  %6 = icmp ugt i64 %2, 16777216
  br i1 %6, label %7, label %12, !prof !17

7:                                                ; preds = %5
  %.not = icmp eq i64 %3, 0
  br i1 %.not, label %8, label %50, !prof !4

8:                                                ; preds = %7
  %9 = tail call i64 @llvm.umax.i64(i64 %1, i64 1025)
  %10 = tail call ptr @_mi_heap_malloc_zero_ex(ptr noundef %0, i64 noundef %9, i1 noundef zeroext false, i64 noundef %2) #8
  %11 = icmp eq ptr %10, null
  br i1 %11, label %50, label %._crit_edge

._crit_edge:                                      ; preds = %8
  %.pre = add i64 %2, -1
  br label %18

12:                                               ; preds = %5
  %13 = tail call i64 @llvm.umax.i64(i64 %1, i64 16)
  %14 = add nsw i64 %2, -1
  %15 = add nsw i64 %14, %13
  %16 = tail call ptr @_mi_heap_malloc_zero(ptr noundef %0, i64 noundef range(i64 -1, 281474993356800) %15, i1 noundef zeroext %4) #8
  %17 = icmp eq ptr %16, null
  br i1 %17, label %50, label %18

18:                                               ; preds = %._crit_edge, %12
  %.pre-phi = phi i64 [ %.pre, %._crit_edge ], [ %14, %12 ]
  %.039 = phi ptr [ %10, %._crit_edge ], [ %16, %12 ]
  %19 = ptrtoint ptr %.039 to i64
  %20 = add i64 %3, %19
  %21 = and i64 %20, %.pre-phi
  %22 = icmp eq i64 %21, 0
  %23 = sub i64 %2, %21
  %24 = select i1 %22, i64 0, i64 %23
  %25 = add i64 %24, %19
  %26 = inttoptr i64 %25 to ptr
  %.not43 = icmp eq ptr %.039, %26
  br i1 %.not43, label %47, label %27

27:                                               ; preds = %18
  %28 = add i64 %19, -1
  %29 = icmp slt i64 %28, 33554432
  %30 = and i64 %28, -33554432
  %31 = inttoptr i64 %30 to ptr
  %32 = select i1 %29, ptr null, ptr %31
  %33 = getelementptr inbounds nuw i8, ptr %32, i64 288
  %34 = ptrtoint ptr %32 to i64
  %35 = sub i64 %19, %34
  %36 = lshr i64 %35, 16
  %37 = getelementptr inbounds nuw [513 x %struct.mi_page_s], ptr %33, i64 0, i64 %36
  %38 = getelementptr inbounds nuw i8, ptr %37, i64 4
  %39 = load i32, ptr %38, align 4, !tbaa !20
  %40 = zext i32 %39 to i64
  %41 = sub nsw i64 0, %40
  %42 = getelementptr inbounds i8, ptr %37, i64 %41
  %43 = getelementptr inbounds nuw i8, ptr %42, i64 14
  %44 = load i8, ptr %43, align 2
  %45 = or i8 %44, 2
  store i8 %45, ptr %43, align 2
  %46 = add i64 %24, %1
  tail call void @_mi_padding_shrink(ptr noundef nonnull %42, ptr noundef nonnull %.039, i64 noundef %46) #8
  br label %47

47:                                               ; preds = %27, %18
  %brmerge.not = and i1 %6, %4
  br i1 %brmerge.not, label %48, label %50

48:                                               ; preds = %47
  %49 = tail call i64 @mi_usable_size(ptr noundef %26) #8
  call void @llvm.assume(i1 true) [ "align"(ptr %26, i64 8) ]
  tail call void @llvm.memset.p0.i64(ptr align 8 %26, i8 0, i64 %49, i1 false)
  br label %50

50:                                               ; preds = %48, %47, %12, %8, %7
  %.0 = phi ptr [ null, %7 ], [ null, %8 ], [ null, %12 ], [ %26, %47 ], [ %26, %48 ]
  ret ptr %.0
}